; Function Attrs: mustprogress uwtable
define ptr @ucol_getKeywords_75(ptr noundef %status) local_unnamed_addr #1 {
entry:
  %0 = load i32, ptr %status, align 4
  %cmp.i = icmp sgt i32 %0, 0
  br i1 %cmp.i, label %return, label %if.then

if.then:                                          ; preds = %entry
  %call1 = tail call ptr @uenum_openCharStringsEnumeration_75(ptr noundef nonnull @_ZL8KEYWORDS, i32 noundef 1, ptr noundef nonnull %status)
  br label %return

return:                                           ; preds = %entry, %if.then
  %retval.0 = phi ptr [ %call1, %if.then ], [ null, %entry ]
  ret ptr %retval.0
}